target datalayout = "e-m:e-p270:32:32-p271:32:32-p272:64:64-i64:64-i128:128-f80:128-n8:16:32:64-S128"
target triple = "x86_64-pc-linux-gnu"

%struct.vars = type { ptr, ptr, i32, i64, ptr, ptr, ptr, ptr, ptr, i32, ptr, ptr, ptr, ptr, %struct.smalldfa, %struct.smalldfa }
%struct.smalldfa = type { %struct.dfa, [40 x %struct.sset], [41 x i32], [600 x ptr], [600 x %struct.arcp] }
%struct.dfa = type { i32, i32, i32, i32, i32, ptr, ptr, ptr, ptr, ptr, ptr, ptr, ptr, ptr, ptr, i32, i16, i16, i8, i8 }
%struct.sset = type { ptr, i32, i32, %struct.arcp, ptr, ptr, ptr }
%struct.arcp = type { ptr, i16 }
%struct.guts = type { i32, i32, i64, i64, ptr, %struct.cnfa, i32, %struct.colormap, ptr, ptr, i32 }
%struct.cnfa = type { i32, i32, i32, i32, i32, [2 x i16], [2 x i16], ptr, ptr, ptr, i32, i32 }
%struct.colormap = type { i32, ptr, i64, i64, i16, ptr, ptr, [14 x i32], i32, ptr, ptr, i32, i32, i32, [10 x %struct.colordesc] }
%struct.colordesc = type { i32, i32, i16, ptr, i32, i32 }
%struct.subre = type { i8, i8, i8, i32, i32, i32, i16, i16, ptr, ptr, ptr, ptr, %struct.cnfa, ptr }

; Function Attrs: nounwind uwtable
define internal ptr @getsubdfa(ptr noundef %0, ptr noundef %1) #0 {
  %3 = alloca ptr, align 8
  %4 = alloca ptr, align 8
  %5 = alloca ptr, align 8
  %6 = alloca ptr, align 8
  %7 = alloca i32, align 4
  store ptr %0, ptr %4, align 8
  store ptr %1, ptr %5, align 8
  call void @llvm.lifetime.start.p0(i64 8, ptr %6) #7
  %8 = load ptr, ptr %4, align 8
  %9 = getelementptr inbounds nuw %struct.vars, ptr %8, i32 0, i32 10
  %10 = load ptr, ptr %9, align 8
  %11 = load ptr, ptr %5, align 8
  %12 = getelementptr inbounds nuw %struct.subre, ptr %11, i32 0, i32 3
  %13 = load i32, ptr %12, align 4
  %14 = sext i32 %13 to i64
  %15 = getelementptr inbounds ptr, ptr %10, i64 %14
  %16 = load ptr, ptr %15, align 8
  store ptr %16, ptr %6, align 8
  %17 = load ptr, ptr %6, align 8
  %18 = icmp eq ptr %17, null
  br i1 %18, label %19, label %63

19:                                               ; preds = %2
  %20 = load ptr, ptr %4, align 8
  %21 = load ptr, ptr %5, align 8
  %22 = getelementptr inbounds nuw %struct.subre, ptr %21, i32 0, i32 12
  %23 = load ptr, ptr %4, align 8
  %24 = getelementptr inbounds nuw %struct.vars, ptr %23, i32 0, i32 1
  %25 = load ptr, ptr %24, align 8
  %26 = getelementptr inbounds nuw %struct.guts, ptr %25, i32 0, i32 7
  %27 = call ptr @newdfa(ptr noundef %20, ptr noundef %22, ptr noundef %26, ptr noundef null)
  store ptr %27, ptr %6, align 8
  %28 = load ptr, ptr %6, align 8
  %29 = icmp eq ptr %28, null
  br i1 %29, label %30, label %31

30:                                               ; preds = %19
  store ptr null, ptr %3, align 8
  store i32 1, ptr %7, align 4
  br label %65

31:                                               ; preds = %19
  %32 = load ptr, ptr %5, align 8
  %33 = getelementptr inbounds nuw %struct.subre, ptr %32, i32 0, i32 0
  %34 = load i8, ptr %33, align 8
  %35 = sext i8 %34 to i32
  %36 = icmp eq i32 %35, 98
  br i1 %36, label %37, label %53

37:                                               ; preds = %31
  %38 = load ptr, ptr %5, align 8
  %39 = getelementptr inbounds nuw %struct.subre, ptr %38, i32 0, i32 5
  %40 = load i32, ptr %39, align 4
  %41 = load ptr, ptr %6, align 8
  %42 = getelementptr inbounds nuw %struct.dfa, ptr %41, i32 0, i32 15
  store i32 %40, ptr %42, align 8
  %43 = load ptr, ptr %5, align 8
  %44 = getelementptr inbounds nuw %struct.subre, ptr %43, i32 0, i32 6
  %45 = load i16, ptr %44, align 8
  %46 = load ptr, ptr %6, align 8
  %47 = getelementptr inbounds nuw %struct.dfa, ptr %46, i32 0, i32 16
  store i16 %45, ptr %47, align 4
  %48 = load ptr, ptr %5, align 8
  %49 = getelementptr inbounds nuw %struct.subre, ptr %48, i32 0, i32 7
  %50 = load i16, ptr %49, align 2
  %51 = load ptr, ptr %6, align 8
  %52 = getelementptr inbounds nuw %struct.dfa, ptr %51, i32 0, i32 17
  store i16 %50, ptr %52, align 2
  br label %53

53:                                               ; preds = %37, %31
  %54 = load ptr, ptr %6, align 8
  %55 = load ptr, ptr %4, align 8
  %56 = getelementptr inbounds nuw %struct.vars, ptr %55, i32 0, i32 10
  %57 = load ptr, ptr %56, align 8
  %58 = load ptr, ptr %5, align 8
  %59 = getelementptr inbounds nuw %struct.subre, ptr %58, i32 0, i32 3
  %60 = load i32, ptr %59, align 4
  %61 = sext i32 %60 to i64
  %62 = getelementptr inbounds ptr, ptr %57, i64 %61
  store ptr %54, ptr %62, align 8
  br label %63

63:                                               ; preds = %53, %2
  %64 = load ptr, ptr %6, align 8
  store ptr %64, ptr %3, align 8
  store i32 1, ptr %7, align 4
  br label %65

65:                                               ; preds = %63, %30
  call void @llvm.lifetime.end.p0(i64 8, ptr %6) #7
  %66 = load ptr, ptr %3, align 8
  ret ptr %66
}