; Function Attrs: nounwind uwtable
define internal fastcc ptr @getsubdfa(ptr noundef nonnull captures(none) %0, ptr noundef %1) unnamed_addr #0 {
  %3 = getelementptr inbounds nuw i8, ptr %0, i64 80
  %4 = load ptr, ptr %3, align 8
  %5 = getelementptr inbounds nuw i8, ptr %1, i64 4
  %6 = load i32, ptr %5, align 4
  %7 = sext i32 %6 to i64
  %8 = getelementptr inbounds ptr, ptr %4, i64 %7
  %9 = load ptr, ptr %8, align 8
  %10 = icmp eq ptr %9, null
  br i1 %10, label %11, label %36

11:                                               ; preds = %2
  %12 = getelementptr inbounds nuw i8, ptr %1, i64 56
  %13 = getelementptr inbounds nuw i8, ptr %0, i64 8
  %14 = load ptr, ptr %13, align 8
  %15 = getelementptr inbounds nuw i8, ptr %14, i64 104
  %16 = tail call fastcc ptr @newdfa(ptr noundef %0, ptr noundef nonnull %12, ptr noundef nonnull %15, ptr noundef null)
  %17 = icmp eq ptr %16, null
  br i1 %17, label %36, label %18

18:                                               ; preds = %11
  %19 = load i8, ptr %1, align 8
  %20 = icmp eq i8 %19, 98
  br i1 %20, label %21, label %31

21:                                               ; preds = %18
  %22 = getelementptr inbounds nuw i8, ptr %1, i64 12
  %23 = load i32, ptr %22, align 4
  %24 = getelementptr inbounds nuw i8, ptr %16, i64 104
  store i32 %23, ptr %24, align 8
  %25 = getelementptr inbounds nuw i8, ptr %1, i64 16
  %26 = load i16, ptr %25, align 8
  %27 = getelementptr inbounds nuw i8, ptr %16, i64 108
  store i16 %26, ptr %27, align 4
  %28 = getelementptr inbounds nuw i8, ptr %1, i64 18
  %29 = load i16, ptr %28, align 2
  %30 = getelementptr inbounds nuw i8, ptr %16, i64 110
  store i16 %29, ptr %30, align 2
  br label %31

31:                                               ; preds = %21, %18
  %32 = load ptr, ptr %3, align 8
  %33 = load i32, ptr %5, align 4
  %34 = sext i32 %33 to i64
  %35 = getelementptr inbounds ptr, ptr %32, i64 %34
  store ptr %16, ptr %35, align 8
  br label %36

36:                                               ; preds = %2, %31, %11
  %.019 = phi ptr [ null, %11 ], [ %16, %31 ], [ %9, %2 ]
  ret ptr %.019
}